target datalayout = "e-m:e-p270:32:32-p271:32:32-p272:64:64-i64:64-i128:128-f80:128-n8:16:32:64-S128"
target triple = "x86_64-pc-linux-gnu"

%struct.AVTextFormatContext = type { ptr, ptr, ptr, ptr, ptr, ptr, i32, i32, [12 x i32], [12 x [100 x i32]], [12 x ptr], [12 x %struct.AVBPrint], i32, i32, i32, i32, i32, ptr, i32, ptr, i32 }
%struct.AVBPrint = type { ptr, i32, i32, i32, [1 x i8], [1000 x i8] }
%struct.AVTextFormatSection = type { i32, ptr, i32, [12 x i32], ptr, ptr, ptr, ptr, i32, ptr, ptr, ptr, ptr }
%struct.DefaultContext = type { ptr, i32, i32, [12 x i32] }

@.str.9 = private unnamed_addr constant [6 x i8] c"%s%s:\00", align 1
@.str.10 = private unnamed_addr constant [6 x i8] c"[%s]\0A\00", align 1
@.str.11 = private unnamed_addr constant [36 x i8] c"Invalid section access at level %d\0A\00", align 1

; Function Attrs: inlinehint nounwind willreturn memory(none) uwtable
define internal i32 @av_toupper(i32 noundef %0) #4 {
  %2 = alloca i32, align 4
  store i32 %0, ptr %2, align 4, !tbaa !26
  %3 = load i32, ptr %2, align 4, !tbaa !26
  %4 = icmp sge i32 %3, 97
  br i1 %4, label %5, label %11

5:                                                ; preds = %1
  %6 = load i32, ptr %2, align 4, !tbaa !26
  %7 = icmp sle i32 %6, 122
  br i1 %7, label %8, label %11

8:                                                ; preds = %5
  %9 = load i32, ptr %2, align 4, !tbaa !26
  %10 = xor i32 %9, 32
  store i32 %10, ptr %2, align 4, !tbaa !26
  br label %11

11:                                               ; preds = %8, %5, %1
  %12 = load i32, ptr %2, align 4, !tbaa !26
  ret i32 %12
}

; Function Attrs: inlinehint nounwind uwtable
define internal ptr @upcase_string(ptr noundef %0, i64 noundef %1, ptr noundef %2) #3 {
  %4 = alloca ptr, align 8
  %5 = alloca i64, align 8
  %6 = alloca ptr, align 8
  %7 = alloca i32, align 4
  store ptr %0, ptr %4, align 8, !tbaa !33
  store i64 %1, ptr %5, align 8, !tbaa !34
  store ptr %2, ptr %6, align 8, !tbaa !33
  call void @llvm.lifetime.start.p0(i64 4, ptr %7) #6
  store i32 0, ptr %7, align 4, !tbaa !26
  br label %8

8:                                                ; preds = %37, %3
  %9 = load ptr, ptr %6, align 8, !tbaa !33
  %10 = load i32, ptr %7, align 4, !tbaa !26
  %11 = zext i32 %10 to i64
  %12 = getelementptr inbounds nuw i8, ptr %9, i64 %11
  %13 = load i8, ptr %12, align 1, !tbaa !37
  %14 = sext i8 %13 to i32
  %15 = icmp ne i32 %14, 0
  br i1 %15, label %16, label %22

16:                                               ; preds = %8
  %17 = load i32, ptr %7, align 4, !tbaa !26
  %18 = zext i32 %17 to i64
  %19 = load i64, ptr %5, align 8, !tbaa !34
  %20 = sub i64 %19, 1
  %21 = icmp ult i64 %18, %20
  br label %22

22:                                               ; preds = %16, %8
  %23 = phi i1 [ false, %8 ], [ %21, %16 ]
  br i1 %23, label %24, label %40

24:                                               ; preds = %22
  %25 = load ptr, ptr %6, align 8, !tbaa !33
  %26 = load i32, ptr %7, align 4, !tbaa !26
  %27 = zext i32 %26 to i64
  %28 = getelementptr inbounds nuw i8, ptr %25, i64 %27
  %29 = load i8, ptr %28, align 1, !tbaa !37
  %30 = sext i8 %29 to i32
  %31 = call i32 @av_toupper(i32 noundef %30) #7
  %32 = trunc i32 %31 to i8
  %33 = load ptr, ptr %4, align 8, !tbaa !33
  %34 = load i32, ptr %7, align 4, !tbaa !26
  %35 = zext i32 %34 to i64
  %36 = getelementptr inbounds nuw i8, ptr %33, i64 %35
  store i8 %32, ptr %36, align 1, !tbaa !37
  br label %37

37:                                               ; preds = %24
  %38 = load i32, ptr %7, align 4, !tbaa !26
  %39 = add i32 %38, 1
  store i32 %39, ptr %7, align 4, !tbaa !26
  br label %8, !llvm.loop !38

40:                                               ; preds = %22
  %41 = load ptr, ptr %4, align 8, !tbaa !33
  %42 = load i32, ptr %7, align 4, !tbaa !26
  %43 = zext i32 %42 to i64
  %44 = getelementptr inbounds nuw i8, ptr %41, i64 %43
  store i8 0, ptr %44, align 1, !tbaa !37
  %45 = load ptr, ptr %4, align 8, !tbaa !33
  call void @llvm.lifetime.end.p0(i64 4, ptr %7) #6
  ret ptr %45
}

; Function Attrs: inlinehint nounwind uwtable
define internal ptr @av_x_if_null(ptr noundef %0, ptr noundef %1) #3 {
  %3 = alloca ptr, align 8
  %4 = alloca ptr, align 8
  store ptr %0, ptr %3, align 8, !tbaa !9
  store ptr %1, ptr %4, align 8, !tbaa !9
  %5 = load ptr, ptr %3, align 8, !tbaa !9
  %6 = icmp ne ptr %5, null
  br i1 %6, label %7, label %9

7:                                                ; preds = %2
  %8 = load ptr, ptr %3, align 8, !tbaa !9
  br label %11

9:                                                ; preds = %2
  %10 = load ptr, ptr %4, align 8, !tbaa !9
  br label %11

11:                                               ; preds = %9, %7
  %12 = phi ptr [ %8, %7 ], [ %10, %9 ]
  %13 = ptrtoint ptr %12 to i64
  %14 = inttoptr i64 %13 to ptr
  ret ptr %14
}

; Function Attrs: inlinehint nounwind uwtable
define internal ptr @tf_get_parent_section(ptr noundef %0, i32 noundef %1) #3 {
  %3 = alloca ptr, align 8
  %4 = alloca ptr, align 8
  %5 = alloca i32, align 4
  store ptr %0, ptr %4, align 8, !tbaa !4
  store i32 %1, ptr %5, align 4, !tbaa !26
  %6 = load i32, ptr %5, align 4, !tbaa !26
  %7 = icmp sle i32 %6, 0
  br i1 %7, label %8, label %9

8:                                                ; preds = %2
  store ptr null, ptr %3, align 8
  br label %14

9:                                                ; preds = %2
  %10 = load ptr, ptr %4, align 8, !tbaa !4
  %11 = load i32, ptr %5, align 4, !tbaa !26
  %12 = sub nsw i32 %11, 1
  %13 = call ptr @tf_get_section(ptr noundef %10, i32 noundef %12)
  store ptr %13, ptr %3, align 8
  br label %14

14:                                               ; preds = %9, %8
  %15 = load ptr, ptr %3, align 8
  ret ptr %15
}

; Function Attrs: inlinehint nounwind uwtable
define internal ptr @tf_get_section(ptr noundef %0, i32 noundef %1) #3 {
  %3 = alloca ptr, align 8
  %4 = alloca ptr, align 8
  %5 = alloca i32, align 4
  store ptr %0, ptr %4, align 8, !tbaa !4
  store i32 %1, ptr %5, align 4, !tbaa !26
  %6 = load ptr, ptr %4, align 8, !tbaa !4
  %7 = icmp ne ptr %6, null
  br i1 %7, label %8, label %22

8:                                                ; preds = %2
  %9 = load i32, ptr %5, align 4, !tbaa !26
  %10 = icmp slt i32 %9, 0
  br i1 %10, label %22, label %11

11:                                               ; preds = %8
  %12 = load i32, ptr %5, align 4, !tbaa !26
  %13 = icmp sge i32 %12, 12
  br i1 %13, label %22, label %14

14:                                               ; preds = %11
  %15 = load ptr, ptr %4, align 8, !tbaa !4
  %16 = getelementptr inbounds nuw %struct.AVTextFormatContext, ptr %15, i32 0, i32 10
  %17 = load i32, ptr %5, align 4, !tbaa !26
  %18 = sext i32 %17 to i64
  %19 = getelementptr inbounds [12 x ptr], ptr %16, i64 0, i64 %18
  %20 = load ptr, ptr %19, align 8, !tbaa !22
  %21 = icmp ne ptr %20, null
  br i1 %21, label %29, label %22

22:                                               ; preds = %14, %11, %8, %2
  %23 = load ptr, ptr %4, align 8, !tbaa !4
  %24 = icmp ne ptr %23, null
  br i1 %24, label %25, label %28

25:                                               ; preds = %22
  %26 = load ptr, ptr %4, align 8, !tbaa !4
  %27 = load i32, ptr %5, align 4, !tbaa !26
  call void (ptr, i32, ptr, ...) @av_log(ptr noundef %26, i32 noundef 16, ptr noundef @.str.11, i32 noundef %27)
  br label %28

28:                                               ; preds = %25, %22
  store ptr null, ptr %3, align 8
  br label %36

29:                                               ; preds = %14
  %30 = load ptr, ptr %4, align 8, !tbaa !4
  %31 = getelementptr inbounds nuw %struct.AVTextFormatContext, ptr %30, i32 0, i32 10
  %32 = load i32, ptr %5, align 4, !tbaa !26
  %33 = sext i32 %32 to i64
  %34 = getelementptr inbounds [12 x ptr], ptr %31, i64 0, i64 %33
  %35 = load ptr, ptr %34, align 8, !tbaa !22
  store ptr %35, ptr %3, align 8
  br label %36

36:                                               ; preds = %29, %28
  %37 = load ptr, ptr %3, align 8
  ret ptr %37
}

; Function Attrs: nounwind uwtable
define internal void @default_print_section_header(ptr noundef %0, ptr noundef %1) #0 {
  %3 = alloca ptr, align 8
  %4 = alloca ptr, align 8
  %5 = alloca ptr, align 8
  %6 = alloca [32 x i8], align 16
  %7 = alloca ptr, align 8
  %8 = alloca ptr, align 8
  %9 = alloca i32, align 4
  store ptr %0, ptr %3, align 8, !tbaa !4
  store ptr %1, ptr %4, align 8, !tbaa !9
  call void @llvm.lifetime.start.p0(i64 8, ptr %5) #6
  %10 = load ptr, ptr %3, align 8, !tbaa !4
  %11 = getelementptr inbounds nuw %struct.AVTextFormatContext, ptr %10, i32 0, i32 4
  %12 = load ptr, ptr %11, align 8, !tbaa !10
  store ptr %12, ptr %5, align 8, !tbaa !19
  call void @llvm.lifetime.start.p0(i64 32, ptr %6) #6
  call void @llvm.lifetime.start.p0(i64 8, ptr %7) #6
  %13 = load ptr, ptr %3, align 8, !tbaa !4
  %14 = load ptr, ptr %3, align 8, !tbaa !4
  %15 = getelementptr inbounds nuw %struct.AVTextFormatContext, ptr %14, i32 0, i32 7
  %16 = load i32, ptr %15, align 4, !tbaa !21
  %17 = call ptr @tf_get_section(ptr noundef %13, i32 noundef %16)
  store ptr %17, ptr %7, align 8, !tbaa !22
  call void @llvm.lifetime.start.p0(i64 8, ptr %8) #6
  %18 = load ptr, ptr %3, align 8, !tbaa !4
  %19 = load ptr, ptr %3, align 8, !tbaa !4
  %20 = getelementptr inbounds nuw %struct.AVTextFormatContext, ptr %19, i32 0, i32 7
  %21 = load i32, ptr %20, align 4, !tbaa !21
  %22 = call ptr @tf_get_parent_section(ptr noundef %18, i32 noundef %21)
  store ptr %22, ptr %8, align 8, !tbaa !22
  %23 = load ptr, ptr %7, align 8, !tbaa !22
  %24 = icmp ne ptr %23, null
  br i1 %24, label %26, label %25

25:                                               ; preds = %2
  store i32 1, ptr %9, align 4
  br label %106

26:                                               ; preds = %2
  %27 = load ptr, ptr %3, align 8, !tbaa !4
  %28 = getelementptr inbounds nuw %struct.AVTextFormatContext, ptr %27, i32 0, i32 11
  %29 = load ptr, ptr %3, align 8, !tbaa !4
  %30 = getelementptr inbounds nuw %struct.AVTextFormatContext, ptr %29, i32 0, i32 7
  %31 = load i32, ptr %30, align 4, !tbaa !21
  %32 = sext i32 %31 to i64
  %33 = getelementptr inbounds [12 x %struct.AVBPrint], ptr %28, i64 0, i64 %32
  call void @av_bprint_clear(ptr noundef %33)
  %34 = load ptr, ptr %8, align 8, !tbaa !22
  %35 = icmp ne ptr %34, null
  br i1 %35, label %36, label %76

36:                                               ; preds = %26
  %37 = load ptr, ptr %8, align 8, !tbaa !22
  %38 = getelementptr inbounds nuw %struct.AVTextFormatSection, ptr %37, i32 0, i32 2
  %39 = load i32, ptr %38, align 8, !tbaa !23
  %40 = and i32 %39, 3
  %41 = icmp ne i32 %40, 0
  br i1 %41, label %76, label %42

42:                                               ; preds = %36
  %43 = load ptr, ptr %5, align 8, !tbaa !19
  %44 = getelementptr inbounds nuw %struct.DefaultContext, ptr %43, i32 0, i32 3
  %45 = load ptr, ptr %3, align 8, !tbaa !4
  %46 = getelementptr inbounds nuw %struct.AVTextFormatContext, ptr %45, i32 0, i32 7
  %47 = load i32, ptr %46, align 4, !tbaa !21
  %48 = sext i32 %47 to i64
  %49 = getelementptr inbounds [12 x i32], ptr %44, i64 0, i64 %48
  store i32 1, ptr %49, align 4, !tbaa !26
  %50 = load ptr, ptr %3, align 8, !tbaa !4
  %51 = getelementptr inbounds nuw %struct.AVTextFormatContext, ptr %50, i32 0, i32 11
  %52 = load ptr, ptr %3, align 8, !tbaa !4
  %53 = getelementptr inbounds nuw %struct.AVTextFormatContext, ptr %52, i32 0, i32 7
  %54 = load i32, ptr %53, align 4, !tbaa !21
  %55 = sext i32 %54 to i64
  %56 = getelementptr inbounds [12 x %struct.AVBPrint], ptr %51, i64 0, i64 %55
  %57 = load ptr, ptr %3, align 8, !tbaa !4
  %58 = getelementptr inbounds nuw %struct.AVTextFormatContext, ptr %57, i32 0, i32 11
  %59 = load ptr, ptr %3, align 8, !tbaa !4
  %60 = getelementptr inbounds nuw %struct.AVTextFormatContext, ptr %59, i32 0, i32 7
  %61 = load i32, ptr %60, align 4, !tbaa !21
  %62 = sub nsw i32 %61, 1
  %63 = sext i32 %62 to i64
  %64 = getelementptr inbounds [12 x %struct.AVBPrint], ptr %58, i64 0, i64 %63
  %65 = getelementptr inbounds nuw %struct.AVBPrint, ptr %64, i32 0, i32 0
  %66 = load ptr, ptr %65, align 8, !tbaa !27
  %67 = getelementptr inbounds [32 x i8], ptr %6, i64 0, i64 0
  %68 = load ptr, ptr %7, align 8, !tbaa !22
  %69 = getelementptr inbounds nuw %struct.AVTextFormatSection, ptr %68, i32 0, i32 4
  %70 = load ptr, ptr %69, align 8, !tbaa !29
  %71 = load ptr, ptr %7, align 8, !tbaa !22
  %72 = getelementptr inbounds nuw %struct.AVTextFormatSection, ptr %71, i32 0, i32 1
  %73 = load ptr, ptr %72, align 8, !tbaa !30
  %74 = call ptr @av_x_if_null(ptr noundef %70, ptr noundef %73)
  %75 = call ptr @upcase_string(ptr noundef %67, i64 noundef 32, ptr noundef %74)
  call void (ptr, ptr, ...) @av_bprintf(ptr noundef %56, ptr noundef @.str.9, ptr noundef %66, ptr noundef %75)
  br label %76

76:                                               ; preds = %42, %36, %26
  %77 = load ptr, ptr %5, align 8, !tbaa !19
  %78 = getelementptr inbounds nuw %struct.DefaultContext, ptr %77, i32 0, i32 2
  %79 = load i32, ptr %78, align 4, !tbaa !31
  %80 = icmp ne i32 %79, 0
  br i1 %80, label %91, label %81

81:                                               ; preds = %76
  %82 = load ptr, ptr %5, align 8, !tbaa !19
  %83 = getelementptr inbounds nuw %struct.DefaultContext, ptr %82, i32 0, i32 3
  %84 = load ptr, ptr %3, align 8, !tbaa !4
  %85 = getelementptr inbounds nuw %struct.AVTextFormatContext, ptr %84, i32 0, i32 7
  %86 = load i32, ptr %85, align 4, !tbaa !21
  %87 = sext i32 %86 to i64
  %88 = getelementptr inbounds [12 x i32], ptr %83, i64 0, i64 %87
  %89 = load i32, ptr %88, align 4, !tbaa !26
  %90 = icmp ne i32 %89, 0
  br i1 %90, label %91, label %92

91:                                               ; preds = %81, %76
  store i32 1, ptr %9, align 4
  br label %106

92:                                               ; preds = %81
  %93 = load ptr, ptr %7, align 8, !tbaa !22
  %94 = getelementptr inbounds nuw %struct.AVTextFormatSection, ptr %93, i32 0, i32 2
  %95 = load i32, ptr %94, align 8, !tbaa !23
  %96 = and i32 %95, 3
  %97 = icmp ne i32 %96, 0
  br i1 %97, label %105, label %98

98:                                               ; preds = %92
  %99 = load ptr, ptr %3, align 8, !tbaa !4
  %100 = getelementptr inbounds [32 x i8], ptr %6, i64 0, i64 0
  %101 = load ptr, ptr %7, align 8, !tbaa !22
  %102 = getelementptr inbounds nuw %struct.AVTextFormatSection, ptr %101, i32 0, i32 1
  %103 = load ptr, ptr %102, align 8, !tbaa !30
  %104 = call ptr @upcase_string(ptr noundef %100, i64 noundef 32, ptr noundef %103)
  call void (ptr, ptr, ...) @writer_printf(ptr noundef %99, ptr noundef @.str.10, ptr noundef %104)
  br label %105

105:                                              ; preds = %98, %92
  store i32 0, ptr %9, align 4
  br label %106

106:                                              ; preds = %105, %91, %25
  call void @llvm.lifetime.end.p0(i64 8, ptr %8) #6
  call void @llvm.lifetime.end.p0(i64 8, ptr %7) #6
  call void @llvm.lifetime.end.p0(i64 32, ptr %6) #6
  call void @llvm.lifetime.end.p0(i64 8, ptr %5) #6
  %107 = load i32, ptr %9, align 4
  switch i32 %107, label %109 [
    i32 0, label %108
    i32 1, label %108
  ]

108:                                              ; preds = %106, %106
  ret void

109:                                              ; preds = %106
  unreachable
}