; Function Attrs: nounwind uwtable
define internal void @default_print_section_header(ptr noundef %0, ptr readnone captures(none) %1) #0 {
  %3 = alloca [32 x i8], align 16
  %4 = getelementptr inbounds nuw i8, ptr %0, i64 32
  %5 = load ptr, ptr %4, align 8, !tbaa !4
  call void @llvm.lifetime.start.p0(i64 32, ptr nonnull %3) #5
  %6 = getelementptr inbounds nuw i8, ptr %0, i64 52
  %7 = load i32, ptr %6, align 4, !tbaa !16
  %8 = icmp eq ptr %0, null
  %9 = icmp ugt i32 %7, 11
  %or.cond3.i = or i1 %8, %9
  br i1 %or.cond3.i, label %.thread.i, label %10

10:                                               ; preds = %2
  %11 = getelementptr inbounds nuw i8, ptr %0, i64 4904
  %12 = zext nneg i32 %7 to i64
  %13 = getelementptr inbounds nuw [12 x ptr], ptr %11, i64 0, i64 %12
  %14 = load ptr, ptr %13, align 8, !tbaa !17
  %.not.i = icmp eq ptr %14, null
  br i1 %.not.i, label %.thread.i, label %tf_get_section.exit

.thread.i:                                        ; preds = %2, %10
  tail call void (ptr, i32, ptr, ...) @av_log(ptr noundef nonnull %0, i32 noundef 16, ptr noundef nonnull @.str.11, i32 noundef %7) #5
  %.pre = load i32, ptr %6, align 4, !tbaa !16
  br label %tf_get_section.exit

tf_get_section.exit:                              ; preds = %10, %.thread.i
  %15 = phi i32 [ %.pre, %.thread.i ], [ %7, %10 ]
  %.0.i = phi ptr [ null, %.thread.i ], [ %14, %10 ]
  %16 = icmp slt i32 %15, 1
  br i1 %16, label %tf_get_parent_section.exit, label %17

17:                                               ; preds = %tf_get_section.exit
  %18 = add nsw i32 %15, -1
  %19 = icmp samesign ugt i32 %18, 11
  %or.cond3.i.i = or i1 %8, %19
  br i1 %or.cond3.i.i, label %.thread.i.i, label %20

20:                                               ; preds = %17
  %21 = getelementptr inbounds nuw i8, ptr %0, i64 4904
  %22 = zext nneg i32 %18 to i64
  %23 = getelementptr inbounds nuw [12 x ptr], ptr %21, i64 0, i64 %22
  %24 = load ptr, ptr %23, align 8, !tbaa !17
  %.not.i.i = icmp eq ptr %24, null
  br i1 %.not.i.i, label %.thread.i.i, label %tf_get_parent_section.exit

.thread.i.i:                                      ; preds = %17, %20
  tail call void (ptr, i32, ptr, ...) @av_log(ptr noundef nonnull %0, i32 noundef 16, ptr noundef nonnull @.str.11, i32 noundef %18) #5
  br label %tf_get_parent_section.exit

tf_get_parent_section.exit:                       ; preds = %tf_get_section.exit, %20, %.thread.i.i
  %.0.i30 = phi ptr [ null, %tf_get_section.exit ], [ null, %.thread.i.i ], [ %24, %20 ]
  %.not = icmp eq ptr %.0.i, null
  br i1 %.not, label %93, label %25

25:                                               ; preds = %tf_get_parent_section.exit
  %26 = getelementptr inbounds nuw i8, ptr %0, i64 5000
  %27 = load i32, ptr %6, align 4, !tbaa !16
  %28 = sext i32 %27 to i64
  %29 = getelementptr inbounds [12 x %struct.AVBPrint], ptr %26, i64 0, i64 %28
  tail call void @av_bprint_clear(ptr noundef nonnull %29) #5
  %.not25 = icmp eq ptr %.0.i30, null
  br i1 %.not25, label %64, label %30

30:                                               ; preds = %25
  %31 = getelementptr inbounds nuw i8, ptr %.0.i30, i64 16
  %32 = load i32, ptr %31, align 8, !tbaa !18
  %33 = and i32 %32, 3
  %.not26 = icmp eq i32 %33, 0
  br i1 %.not26, label %34, label %64

34:                                               ; preds = %30
  %35 = getelementptr inbounds nuw i8, ptr %5, i64 16
  %36 = load i32, ptr %6, align 4, !tbaa !16
  %37 = sext i32 %36 to i64
  %38 = getelementptr inbounds [12 x i32], ptr %35, i64 0, i64 %37
  store i32 1, ptr %38, align 4, !tbaa !21
  %39 = load i32, ptr %6, align 4, !tbaa !16
  %40 = sext i32 %39 to i64
  %41 = getelementptr inbounds [12 x %struct.AVBPrint], ptr %26, i64 0, i64 %40
  %42 = add nsw i32 %39, -1
  %43 = sext i32 %42 to i64
  %44 = getelementptr inbounds [12 x %struct.AVBPrint], ptr %26, i64 0, i64 %43
  %45 = load ptr, ptr %44, align 8, !tbaa !22
  %46 = getelementptr inbounds nuw i8, ptr %.0.i, i64 72
  %47 = load ptr, ptr %46, align 8, !tbaa !24
  %48 = getelementptr inbounds nuw i8, ptr %.0.i, i64 8
  %49 = load ptr, ptr %48, align 8, !tbaa !25
  %.not.i31 = icmp eq ptr %47, null
  %50 = select i1 %.not.i31, ptr %49, ptr %47
  %51 = load i8, ptr %50, align 1, !tbaa !26
  %.not.i32 = icmp eq i8 %51, 0
  br i1 %.not.i32, label %upcase_string.exit, label %.lr.ph.i

.lr.ph.i:                                         ; preds = %34, %.lr.ph.i
  %indvars.iv.i = phi i64 [ %indvars.iv.next.i, %.lr.ph.i ], [ 0, %34 ]
  %52 = phi i8 [ %59, %.lr.ph.i ], [ %51, %34 ]
  %53 = sext i8 %52 to i32
  %54 = add nsw i32 %53, -97
  %or.cond.i.i = icmp ult i32 %54, 26
  %55 = and i8 %52, 95
  %56 = select i1 %or.cond.i.i, i8 %55, i8 %52
  %57 = getelementptr inbounds nuw i8, ptr %3, i64 %indvars.iv.i
  store i8 %56, ptr %57, align 1, !tbaa !26
  %indvars.iv.next.i = add nuw nsw i64 %indvars.iv.i, 1
  %58 = getelementptr inbounds nuw i8, ptr %50, i64 %indvars.iv.next.i
  %59 = load i8, ptr %58, align 1, !tbaa !26
  %60 = icmp ne i8 %59, 0
  %61 = icmp samesign ult i64 %indvars.iv.i, 30
  %62 = and i1 %61, %60
  br i1 %62, label %.lr.ph.i, label %upcase_string.exit, !llvm.loop !27

upcase_string.exit:                               ; preds = %.lr.ph.i, %34
  %.lcssa.i = phi i64 [ 0, %34 ], [ %indvars.iv.next.i, %.lr.ph.i ]
  %63 = getelementptr inbounds nuw i8, ptr %3, i64 %.lcssa.i
  store i8 0, ptr %63, align 1, !tbaa !26
  call void (ptr, ptr, ...) @av_bprintf(ptr noundef nonnull %41, ptr noundef nonnull @.str.9, ptr noundef %45, ptr noundef nonnull %3) #5
  br label %64

64:                                               ; preds = %upcase_string.exit, %30, %25
  %65 = getelementptr inbounds nuw i8, ptr %5, i64 12
  %66 = load i32, ptr %65, align 4, !tbaa !29
  %.not27 = icmp eq i32 %66, 0
  br i1 %.not27, label %67, label %93

67:                                               ; preds = %64
  %68 = getelementptr inbounds nuw i8, ptr %5, i64 16
  %69 = load i32, ptr %6, align 4, !tbaa !16
  %70 = sext i32 %69 to i64
  %71 = getelementptr inbounds [12 x i32], ptr %68, i64 0, i64 %70
  %72 = load i32, ptr %71, align 4, !tbaa !21
  %.not28 = icmp eq i32 %72, 0
  br i1 %.not28, label %73, label %93

73:                                               ; preds = %67
  %74 = getelementptr inbounds nuw i8, ptr %.0.i, i64 16
  %75 = load i32, ptr %74, align 8, !tbaa !18
  %76 = and i32 %75, 3
  %.not29 = icmp eq i32 %76, 0
  br i1 %.not29, label %77, label %93

77:                                               ; preds = %73
  %78 = getelementptr inbounds nuw i8, ptr %.0.i, i64 8
  %79 = load ptr, ptr %78, align 8, !tbaa !25
  %80 = load i8, ptr %79, align 1, !tbaa !26
  %.not.i33 = icmp eq i8 %80, 0
  br i1 %.not.i33, label %upcase_string.exit39, label %.lr.ph.i34

.lr.ph.i34:                                       ; preds = %77, %.lr.ph.i34
  %indvars.iv.i35 = phi i64 [ %indvars.iv.next.i37, %.lr.ph.i34 ], [ 0, %77 ]
  %81 = phi i8 [ %88, %.lr.ph.i34 ], [ %80, %77 ]
  %82 = sext i8 %81 to i32
  %83 = add nsw i32 %82, -97
  %or.cond.i.i36 = icmp ult i32 %83, 26
  %84 = and i8 %81, 95
  %85 = select i1 %or.cond.i.i36, i8 %84, i8 %81
  %86 = getelementptr inbounds nuw i8, ptr %3, i64 %indvars.iv.i35
  store i8 %85, ptr %86, align 1, !tbaa !26
  %indvars.iv.next.i37 = add nuw nsw i64 %indvars.iv.i35, 1
  %87 = getelementptr inbounds nuw i8, ptr %79, i64 %indvars.iv.next.i37
  %88 = load i8, ptr %87, align 1, !tbaa !26
  %89 = icmp ne i8 %88, 0
  %90 = icmp samesign ult i64 %indvars.iv.i35, 30
  %91 = and i1 %90, %89
  br i1 %91, label %.lr.ph.i34, label %upcase_string.exit39, !llvm.loop !27

upcase_string.exit39:                             ; preds = %.lr.ph.i34, %77
  %.lcssa.i38 = phi i64 [ 0, %77 ], [ %indvars.iv.next.i37, %.lr.ph.i34 ]
  %92 = getelementptr inbounds nuw i8, ptr %3, i64 %.lcssa.i38
  store i8 0, ptr %92, align 1, !tbaa !26
  call void (ptr, ptr, ...) @writer_printf(ptr noundef nonnull %0, ptr noundef nonnull @.str.10, ptr noundef nonnull %3)
  br label %93

93:                                               ; preds = %73, %upcase_string.exit39, %64, %67, %tf_get_parent_section.exit
  call void @llvm.lifetime.end.p0(i64 32, ptr nonnull %3) #5
  ret void
}